target datalayout = "e-m:e-p270:32:32-p271:32:32-p272:64:64-i64:64-i128:128-f80:128-n8:16:32:64-S128"
target triple = "x86_64-pc-linux-gnu"

%"class.std::__cxx11::basic_string" = type { %"struct.std::__cxx11::basic_string<char>::_Alloc_hider", i64, %union.anon }
%"struct.std::__cxx11::basic_string<char>::_Alloc_hider" = type { ptr }
%union.anon = type { i64, [8 x i8] }
%"class.std::filesystem::__cxx11::path" = type { %"class.std::__cxx11::basic_string", %"struct.std::filesystem::__cxx11::path::_List" }
%"struct.std::filesystem::__cxx11::path::_List" = type { %"class.std::unique_ptr.11" }
%"class.std::unique_ptr.11" = type { %"struct.std::__uniq_ptr_data.12" }
%"struct.std::__uniq_ptr_data.12" = type { %"class.std::__uniq_ptr_impl.13" }
%"class.std::__uniq_ptr_impl.13" = type { %"class.std::tuple.14" }
%"class.std::tuple.14" = type { %"struct.std::_Tuple_impl.15" }
%"struct.std::_Tuple_impl.15" = type { %"struct.std::_Head_base.18" }
%"struct.std::_Head_base.18" = type { ptr }
%struct.gmx_sparsematrix = type { i8, i32, ptr, ptr, ptr }
%struct.gmx_sparsematrix_entry = type { i32, float }

@.str.53 = private unnamed_addr constant [120 x i8] c"generated/home/dtcxzyw/WorkSpace/Projects/compilers/llvm-opt-benchmark/bench/gromacs/gromacs/src/gromacs/tools/dump.cpp\00", align 1
@.str.63 = private unnamed_addr constant [2 x i8] c"\0A\00", align 1
@.str.98 = private unnamed_addr constant [5 x i8] c"full\00", align 1
@.str.99 = private unnamed_addr constant [7 x i8] c"%d %d\0A\00", align 1
@.str.100 = private unnamed_addr constant [4 x i8] c" %g\00", align 1

; Function Attrs: inlinehint mustprogress uwtable
define internal void @_ZL14gmx_sfree_implIfEvPKcS1_iPT_(ptr noundef %0, ptr noundef %1, i32 noundef %2, ptr noundef %3) #2 {
  %5 = alloca ptr, align 8
  %6 = alloca ptr, align 8
  %7 = alloca i32, align 4
  %8 = alloca ptr, align 8
  store ptr %0, ptr %5, align 8, !tbaa !42
  store ptr %1, ptr %6, align 8, !tbaa !42
  store i32 %2, ptr %7, align 4, !tbaa !86
  store ptr %3, ptr %8, align 8, !tbaa !289
  %9 = load ptr, ptr %5, align 8, !tbaa !42
  %10 = load ptr, ptr %6, align 8, !tbaa !42
  %11 = load i32, ptr %7, align 4, !tbaa !86
  %12 = load ptr, ptr %8, align 8, !tbaa !289
  call void @_Z9save_freePKcS0_iPv(ptr noundef %9, ptr noundef %10, i32 noundef %11, ptr noundef %12)
  ret void
}

; Function Attrs: inlinehint mustprogress uwtable
define internal void @_ZL13gmx_snew_implIfEvPKcS1_iRPT_m(ptr noundef %0, ptr noundef %1, i32 noundef %2, ptr noundef nonnull align 8 dereferenceable(8) %3, i64 noundef %4) #2 {
  %6 = alloca ptr, align 8
  %7 = alloca ptr, align 8
  %8 = alloca i32, align 4
  %9 = alloca ptr, align 8
  %10 = alloca i64, align 8
  store ptr %0, ptr %6, align 8, !tbaa !42
  store ptr %1, ptr %7, align 8, !tbaa !42
  store i32 %2, ptr %8, align 4, !tbaa !86
  store ptr %3, ptr %9, align 8, !tbaa !419
  store i64 %4, ptr %10, align 8, !tbaa !50
  %11 = load ptr, ptr %6, align 8, !tbaa !42
  %12 = load ptr, ptr %7, align 8, !tbaa !42
  %13 = load i32, ptr %8, align 4, !tbaa !86
  %14 = load i64, ptr %10, align 8, !tbaa !50
  %15 = call noundef ptr @_Z11save_callocPKcS0_imm(ptr noundef %11, ptr noundef %12, i32 noundef %13, i64 noundef %14, i64 noundef 4)
  %16 = load ptr, ptr %9, align 8, !tbaa !419
  store ptr %15, ptr %16, align 8, !tbaa !289
  ret void
}

; Function Attrs: mustprogress uwtable
define internal void @_ZN3gmx12_GLOBAL__N_18list_mtxEPKc(ptr noundef %0) #0 personality ptr @__gxx_personality_v0 {
  %2 = alloca ptr, align 8
  %3 = alloca i32, align 4
  %4 = alloca i32, align 4
  %5 = alloca i32, align 4
  %6 = alloca i32, align 4
  %7 = alloca i32, align 4
  %8 = alloca ptr, align 8
  %9 = alloca float, align 4
  %10 = alloca ptr, align 8
  %11 = alloca %"class.std::filesystem::__cxx11::path", align 8
  %12 = alloca ptr, align 8
  %13 = alloca i32, align 4
  store ptr %0, ptr %2, align 8, !tbaa !42
  call void @llvm.lifetime.start.p0(i64 4, ptr %3) #19
  call void @llvm.lifetime.start.p0(i64 4, ptr %4) #19
  call void @llvm.lifetime.start.p0(i64 4, ptr %5) #19
  call void @llvm.lifetime.start.p0(i64 4, ptr %6) #19
  call void @llvm.lifetime.start.p0(i64 4, ptr %7) #19
  call void @llvm.lifetime.start.p0(i64 8, ptr %8) #19
  store ptr null, ptr %8, align 8, !tbaa !289
  call void @llvm.lifetime.start.p0(i64 4, ptr %9) #19
  call void @llvm.lifetime.start.p0(i64 8, ptr %10) #19
  store ptr null, ptr %10, align 8, !tbaa !290
  call void @llvm.lifetime.start.p0(i64 40, ptr %11) #19
  call void @_ZNSt10filesystem7__cxx114pathC2IPKcS1_EERKT_NS1_6formatE(ptr noundef nonnull align 8 dereferenceable(40) %11, ptr noundef nonnull align 8 dereferenceable(8) %2, i8 noundef zeroext 2)
  invoke void @_Z14gmx_mtxio_readRKNSt10filesystem7__cxx114pathEPiS4_PPfPP16gmx_sparsematrix(ptr noundef nonnull align 8 dereferenceable(40) %11, ptr noundef %3, ptr noundef %4, ptr noundef %8, ptr noundef %10)
          to label %14 unwind label %36

14:                                               ; preds = %1
  call void @_ZNSt10filesystem7__cxx114pathD2Ev(ptr noundef nonnull align 8 dereferenceable(40) %11) #19
  call void @llvm.lifetime.end.p0(i64 40, ptr %11) #19
  %15 = load ptr, ptr %8, align 8, !tbaa !289
  %16 = icmp eq ptr %15, null
  br i1 %16, label %17, label %110

17:                                               ; preds = %14
  %18 = load i32, ptr %3, align 4, !tbaa !86
  %19 = load i32, ptr %4, align 4, !tbaa !86
  %20 = mul nsw i32 %18, %19
  %21 = sext i32 %20 to i64
  call void @_ZL13gmx_snew_implIfEvPKcS1_iRPT_m(ptr noundef @.str.98, ptr noundef @.str.53, i32 noundef 593, ptr noundef nonnull align 8 dereferenceable(8) %8, i64 noundef %21)
  store i32 0, ptr %5, align 4, !tbaa !86
  br label %22

22:                                               ; preds = %33, %17
  %23 = load i32, ptr %5, align 4, !tbaa !86
  %24 = load i32, ptr %3, align 4, !tbaa !86
  %25 = load i32, ptr %4, align 4, !tbaa !86
  %26 = mul nsw i32 %24, %25
  %27 = icmp slt i32 %23, %26
  br i1 %27, label %28, label %40

28:                                               ; preds = %22
  %29 = load ptr, ptr %8, align 8, !tbaa !289
  %30 = load i32, ptr %5, align 4, !tbaa !86
  %31 = sext i32 %30 to i64
  %32 = getelementptr inbounds float, ptr %29, i64 %31
  store float 0.000000e+00, ptr %32, align 4, !tbaa !125
  br label %33

33:                                               ; preds = %28
  %34 = load i32, ptr %5, align 4, !tbaa !86
  %35 = add nsw i32 %34, 1
  store i32 %35, ptr %5, align 4, !tbaa !86
  br label %22, !llvm.loop !292

36:                                               ; preds = %1
  %37 = landingpad { ptr, i32 }
          cleanup
  %38 = extractvalue { ptr, i32 } %37, 0
  store ptr %38, ptr %12, align 8
  %39 = extractvalue { ptr, i32 } %37, 1
  store i32 %39, ptr %13, align 4
  call void @_ZNSt10filesystem7__cxx114pathD2Ev(ptr noundef nonnull align 8 dereferenceable(40) %11) #19
  call void @llvm.lifetime.end.p0(i64 40, ptr %11) #19
  call void @llvm.lifetime.end.p0(i64 8, ptr %10) #19
  call void @llvm.lifetime.end.p0(i64 4, ptr %9) #19
  call void @llvm.lifetime.end.p0(i64 8, ptr %8) #19
  call void @llvm.lifetime.end.p0(i64 4, ptr %7) #19
  call void @llvm.lifetime.end.p0(i64 4, ptr %6) #19
  call void @llvm.lifetime.end.p0(i64 4, ptr %5) #19
  call void @llvm.lifetime.end.p0(i64 4, ptr %4) #19
  call void @llvm.lifetime.end.p0(i64 4, ptr %3) #19
  br label %145

40:                                               ; preds = %22
  store i32 0, ptr %5, align 4, !tbaa !86
  br label %41

41:                                               ; preds = %105, %40
  %42 = load i32, ptr %5, align 4, !tbaa !86
  %43 = load ptr, ptr %10, align 8, !tbaa !290
  %44 = getelementptr inbounds nuw %struct.gmx_sparsematrix, ptr %43, i32 0, i32 1
  %45 = load i32, ptr %44, align 4, !tbaa !293
  %46 = icmp slt i32 %42, %45
  br i1 %46, label %47, label %108

47:                                               ; preds = %41
  store i32 0, ptr %6, align 4, !tbaa !86
  br label %48

48:                                               ; preds = %101, %47
  %49 = load i32, ptr %6, align 4, !tbaa !86
  %50 = load ptr, ptr %10, align 8, !tbaa !290
  %51 = getelementptr inbounds nuw %struct.gmx_sparsematrix, ptr %50, i32 0, i32 2
  %52 = load ptr, ptr %51, align 8, !tbaa !296
  %53 = load i32, ptr %5, align 4, !tbaa !86
  %54 = sext i32 %53 to i64
  %55 = getelementptr inbounds i32, ptr %52, i64 %54
  %56 = load i32, ptr %55, align 4, !tbaa !86
  %57 = icmp slt i32 %49, %56
  br i1 %57, label %58, label %104

58:                                               ; preds = %48
  %59 = load ptr, ptr %10, align 8, !tbaa !290
  %60 = getelementptr inbounds nuw %struct.gmx_sparsematrix, ptr %59, i32 0, i32 4
  %61 = load ptr, ptr %60, align 8, !tbaa !297
  %62 = load i32, ptr %5, align 4, !tbaa !86
  %63 = sext i32 %62 to i64
  %64 = getelementptr inbounds ptr, ptr %61, i64 %63
  %65 = load ptr, ptr %64, align 8, !tbaa !298
  %66 = load i32, ptr %6, align 4, !tbaa !86
  %67 = sext i32 %66 to i64
  %68 = getelementptr inbounds %struct.gmx_sparsematrix_entry, ptr %65, i64 %67
  %69 = getelementptr inbounds nuw %struct.gmx_sparsematrix_entry, ptr %68, i32 0, i32 0
  %70 = load i32, ptr %69, align 4, !tbaa !300
  store i32 %70, ptr %7, align 4, !tbaa !86
  %71 = load ptr, ptr %10, align 8, !tbaa !290
  %72 = getelementptr inbounds nuw %struct.gmx_sparsematrix, ptr %71, i32 0, i32 4
  %73 = load ptr, ptr %72, align 8, !tbaa !297
  %74 = load i32, ptr %5, align 4, !tbaa !86
  %75 = sext i32 %74 to i64
  %76 = getelementptr inbounds ptr, ptr %73, i64 %75
  %77 = load ptr, ptr %76, align 8, !tbaa !298
  %78 = load i32, ptr %6, align 4, !tbaa !86
  %79 = sext i32 %78 to i64
  %80 = getelementptr inbounds %struct.gmx_sparsematrix_entry, ptr %77, i64 %79
  %81 = getelementptr inbounds nuw %struct.gmx_sparsematrix_entry, ptr %80, i32 0, i32 1
  %82 = load float, ptr %81, align 4, !tbaa !302
  store float %82, ptr %9, align 4, !tbaa !125
  %83 = load float, ptr %9, align 4, !tbaa !125
  %84 = load ptr, ptr %8, align 8, !tbaa !289
  %85 = load i32, ptr %5, align 4, !tbaa !86
  %86 = load i32, ptr %4, align 4, !tbaa !86
  %87 = mul nsw i32 %85, %86
  %88 = load i32, ptr %7, align 4, !tbaa !86
  %89 = add nsw i32 %87, %88
  %90 = sext i32 %89 to i64
  %91 = getelementptr inbounds float, ptr %84, i64 %90
  store float %83, ptr %91, align 4, !tbaa !125
  %92 = load float, ptr %9, align 4, !tbaa !125
  %93 = load ptr, ptr %8, align 8, !tbaa !289
  %94 = load i32, ptr %7, align 4, !tbaa !86
  %95 = load i32, ptr %4, align 4, !tbaa !86
  %96 = mul nsw i32 %94, %95
  %97 = load i32, ptr %5, align 4, !tbaa !86
  %98 = add nsw i32 %96, %97
  %99 = sext i32 %98 to i64
  %100 = getelementptr inbounds float, ptr %93, i64 %99
  store float %92, ptr %100, align 4, !tbaa !125
  br label %101

101:                                              ; preds = %58
  %102 = load i32, ptr %6, align 4, !tbaa !86
  %103 = add nsw i32 %102, 1
  store i32 %103, ptr %6, align 4, !tbaa !86
  br label %48, !llvm.loop !303

104:                                              ; preds = %48
  br label %105

105:                                              ; preds = %104
  %106 = load i32, ptr %5, align 4, !tbaa !86
  %107 = add nsw i32 %106, 1
  store i32 %107, ptr %5, align 4, !tbaa !86
  br label %41, !llvm.loop !304

108:                                              ; preds = %41
  %109 = load ptr, ptr %10, align 8, !tbaa !290
  call void @_Z24gmx_sparsematrix_destroyP16gmx_sparsematrix(ptr noundef %109)
  br label %110

110:                                              ; preds = %108, %14
  %111 = load i32, ptr %3, align 4, !tbaa !86
  %112 = load i32, ptr %4, align 4, !tbaa !86
  %113 = call i32 (ptr, ...) @printf(ptr noundef @.str.99, i32 noundef %111, i32 noundef %112)
  store i32 0, ptr %5, align 4, !tbaa !86
  br label %114

114:                                              ; preds = %140, %110
  %115 = load i32, ptr %5, align 4, !tbaa !86
  %116 = load i32, ptr %3, align 4, !tbaa !86
  %117 = icmp slt i32 %115, %116
  br i1 %117, label %118, label %143

118:                                              ; preds = %114
  store i32 0, ptr %6, align 4, !tbaa !86
  br label %119

119:                                              ; preds = %135, %118
  %120 = load i32, ptr %6, align 4, !tbaa !86
  %121 = load i32, ptr %4, align 4, !tbaa !86
  %122 = icmp slt i32 %120, %121
  br i1 %122, label %123, label %138

123:                                              ; preds = %119
  %124 = load ptr, ptr %8, align 8, !tbaa !289
  %125 = load i32, ptr %5, align 4, !tbaa !86
  %126 = load i32, ptr %4, align 4, !tbaa !86
  %127 = mul nsw i32 %125, %126
  %128 = load i32, ptr %6, align 4, !tbaa !86
  %129 = add nsw i32 %127, %128
  %130 = sext i32 %129 to i64
  %131 = getelementptr inbounds float, ptr %124, i64 %130
  %132 = load float, ptr %131, align 4, !tbaa !125
  %133 = fpext float %132 to double
  %134 = call i32 (ptr, ...) @printf(ptr noundef @.str.100, double noundef %133)
  br label %135

135:                                              ; preds = %123
  %136 = load i32, ptr %6, align 4, !tbaa !86
  %137 = add nsw i32 %136, 1
  store i32 %137, ptr %6, align 4, !tbaa !86
  br label %119, !llvm.loop !305

138:                                              ; preds = %119
  %139 = call i32 (ptr, ...) @printf(ptr noundef @.str.63)
  br label %140

140:                                              ; preds = %138
  %141 = load i32, ptr %5, align 4, !tbaa !86
  %142 = add nsw i32 %141, 1
  store i32 %142, ptr %5, align 4, !tbaa !86
  br label %114, !llvm.loop !306

143:                                              ; preds = %114
  %144 = load ptr, ptr %8, align 8, !tbaa !289
  call void @_ZL14gmx_sfree_implIfEvPKcS1_iPT_(ptr noundef @.str.98, ptr noundef @.str.53, i32 noundef 622, ptr noundef %144)
  call void @llvm.lifetime.end.p0(i64 8, ptr %10) #19
  call void @llvm.lifetime.end.p0(i64 4, ptr %9) #19
  call void @llvm.lifetime.end.p0(i64 8, ptr %8) #19
  call void @llvm.lifetime.end.p0(i64 4, ptr %7) #19
  call void @llvm.lifetime.end.p0(i64 4, ptr %6) #19
  call void @llvm.lifetime.end.p0(i64 4, ptr %5) #19
  call void @llvm.lifetime.end.p0(i64 4, ptr %4) #19
  call void @llvm.lifetime.end.p0(i64 4, ptr %3) #19
  ret void

145:                                              ; preds = %36
  %146 = load ptr, ptr %12, align 8
  %147 = load i32, ptr %13, align 4
  %148 = insertvalue { ptr, i32 } poison, ptr %146, 0
  %149 = insertvalue { ptr, i32 } %148, i32 %147, 1
  resume { ptr, i32 } %149
}