; Function Attrs: mustprogress uwtable
define internal fastcc void @_ZN3gmx12_GLOBAL__N_18list_mtxEPKc(ptr noundef %0) unnamed_addr #0 personality ptr @__gxx_personality_v0 {
  %2 = alloca ptr, align 8
  %3 = alloca i32, align 4
  %4 = alloca i32, align 4
  %5 = alloca ptr, align 8
  %6 = alloca ptr, align 8
  %7 = alloca %"class.std::filesystem::__cxx11::path", align 8
  store ptr %0, ptr %2, align 8, !tbaa !62
  call void @llvm.lifetime.start.p0(i64 4, ptr nonnull %3) #20
  call void @llvm.lifetime.start.p0(i64 4, ptr nonnull %4) #20
  call void @llvm.lifetime.start.p0(i64 8, ptr nonnull %5) #20
  store ptr null, ptr %5, align 8, !tbaa !182
  call void @llvm.lifetime.start.p0(i64 8, ptr nonnull %6) #20
  store ptr null, ptr %6, align 8, !tbaa !249
  call void @llvm.lifetime.start.p0(i64 40, ptr nonnull %7) #20
  call void @_ZNSt10filesystem7__cxx114pathC2IPKcS1_EERKT_NS1_6formatE(ptr noundef nonnull align 8 dereferenceable(40) %7, ptr noundef nonnull align 8 dereferenceable(8) %2, i8 noundef zeroext 2)
  invoke void @_Z14gmx_mtxio_readRKNSt10filesystem7__cxx114pathEPiS4_PPfPP16gmx_sparsematrix(ptr noundef nonnull align 8 dereferenceable(40) %7, ptr noundef nonnull %3, ptr noundef nonnull %4, ptr noundef nonnull %5, ptr noundef nonnull %6)
          to label %8 unwind label %42

8:                                                ; preds = %1
  %9 = getelementptr inbounds nuw i8, ptr %7, i64 32
  %10 = load ptr, ptr %9, align 8, !tbaa !63
  %.not.i.i.i = icmp eq ptr %10, null
  br i1 %.not.i.i.i, label %_ZNSt10filesystem7__cxx114path5_ListD2Ev.exit.i, label %11

11:                                               ; preds = %8
  call void @_ZNKSt10filesystem7__cxx114path5_List13_Impl_deleterclEPNS2_5_ImplE(ptr noundef nonnull align 8 dereferenceable(8) %9, ptr noundef nonnull %10) #20
  br label %_ZNSt10filesystem7__cxx114path5_ListD2Ev.exit.i

_ZNSt10filesystem7__cxx114path5_ListD2Ev.exit.i:  ; preds = %11, %8
  store ptr null, ptr %9, align 8, !tbaa !63
  %12 = load ptr, ptr %7, align 8, !tbaa !29
  %13 = getelementptr inbounds nuw i8, ptr %7, i64 16
  %14 = icmp eq ptr %12, %13
  br i1 %14, label %_ZNKSt7__cxx1112basic_stringIcSt11char_traitsIcESaIcEE11_M_is_localEv.exit.thread.i.i.i, label %_ZNKSt7__cxx1112basic_stringIcSt11char_traitsIcESaIcEE11_M_is_localEv.exit.i.i.i

_ZNKSt7__cxx1112basic_stringIcSt11char_traitsIcESaIcEE11_M_is_localEv.exit.thread.i.i.i: ; preds = %_ZNSt10filesystem7__cxx114path5_ListD2Ev.exit.i
  %15 = getelementptr inbounds nuw i8, ptr %7, i64 8
  %16 = load i64, ptr %15, align 8, !tbaa !24
  %17 = icmp ult i64 %16, 16
  call void @llvm.assume(i1 %17)
  br label %_ZNSt10filesystem7__cxx114pathD2Ev.exit

_ZNKSt7__cxx1112basic_stringIcSt11char_traitsIcESaIcEE11_M_is_localEv.exit.i.i.i: ; preds = %_ZNSt10filesystem7__cxx114path5_ListD2Ev.exit.i
  %18 = load i64, ptr %13, align 8, !tbaa !25
  %19 = add i64 %18, 1
  call void @_ZdlPvm(ptr noundef %12, i64 noundef %19) #19
  br label %_ZNSt10filesystem7__cxx114pathD2Ev.exit

_ZNSt10filesystem7__cxx114pathD2Ev.exit:          ; preds = %_ZNKSt7__cxx1112basic_stringIcSt11char_traitsIcESaIcEE11_M_is_localEv.exit.thread.i.i.i, %_ZNKSt7__cxx1112basic_stringIcSt11char_traitsIcESaIcEE11_M_is_localEv.exit.i.i.i
  call void @llvm.lifetime.end.p0(i64 40, ptr nonnull %7) #20
  %20 = load ptr, ptr %5, align 8, !tbaa !182
  %21 = icmp eq ptr %20, null
  br i1 %21, label %22, label %64

22:                                               ; preds = %_ZNSt10filesystem7__cxx114pathD2Ev.exit
  %23 = load i32, ptr %3, align 4, !tbaa !74
  %24 = load i32, ptr %4, align 4, !tbaa !74
  %25 = mul nsw i32 %24, %23
  %26 = sext i32 %25 to i64
  %27 = call noundef ptr @_Z11save_callocPKcS0_imm(ptr noundef nonnull @.str.98, ptr noundef nonnull @.str.53, i32 noundef 593, i64 noundef range(i64 -2147483648, 2147483648) %26, i64 noundef 4)
  store ptr %27, ptr %5, align 8, !tbaa !182
  %28 = load i32, ptr %3, align 4, !tbaa !74
  %29 = load i32, ptr %4, align 4, !tbaa !74
  %30 = mul nsw i32 %29, %28
  %31 = icmp sgt i32 %30, 0
  br i1 %31, label %.lr.ph.preheader, label %.preheader29

.lr.ph.preheader:                                 ; preds = %22
  %32 = zext nneg i32 %30 to i64
  %33 = shl nuw nsw i64 %32, 2
  call void @llvm.memset.p0.i64(ptr align 4 %27, i8 0, i64 %33, i1 false), !tbaa !78
  br label %.preheader29

.preheader29:                                     ; preds = %.lr.ph.preheader, %22
  %34 = load ptr, ptr %6, align 8, !tbaa !249
  %35 = getelementptr inbounds nuw i8, ptr %34, i64 4
  %36 = load i32, ptr %35, align 4, !tbaa !251
  %37 = icmp sgt i32 %36, 0
  br i1 %37, label %.preheader28.lr.ph, label %._crit_edge35

.preheader28.lr.ph:                               ; preds = %.preheader29
  %38 = getelementptr inbounds nuw i8, ptr %34, i64 8
  %39 = load ptr, ptr %38, align 8, !tbaa !254
  %40 = getelementptr inbounds nuw i8, ptr %34, i64 24
  %41 = sext i32 %29 to i64
  %wide.trip.count47 = zext nneg i32 %36 to i64
  br label %.preheader28

42:                                               ; preds = %1
  %43 = landingpad { ptr, i32 }
          cleanup
  call void @_ZNSt10filesystem7__cxx114pathD2Ev(ptr noundef nonnull align 8 dereferenceable(40) %7) #20
  call void @llvm.lifetime.end.p0(i64 40, ptr nonnull %7) #20
  call void @llvm.lifetime.end.p0(i64 8, ptr nonnull %6) #20
  call void @llvm.lifetime.end.p0(i64 8, ptr nonnull %5) #20
  call void @llvm.lifetime.end.p0(i64 4, ptr nonnull %4) #20
  call void @llvm.lifetime.end.p0(i64 4, ptr nonnull %3) #20
  resume { ptr, i32 } %43

.preheader28:                                     ; preds = %.preheader28.lr.ph, %._crit_edge
  %indvars.iv44 = phi i64 [ 0, %.preheader28.lr.ph ], [ %indvars.iv.next45, %._crit_edge ]
  %44 = getelementptr inbounds nuw i32, ptr %39, i64 %indvars.iv44
  %45 = load i32, ptr %44, align 4, !tbaa !74
  %46 = icmp sgt i32 %45, 0
  br i1 %46, label %.lr.ph33, label %._crit_edge

.lr.ph33:                                         ; preds = %.preheader28
  %47 = load ptr, ptr %40, align 8, !tbaa !255
  %48 = getelementptr inbounds nuw ptr, ptr %47, i64 %indvars.iv44
  %49 = load ptr, ptr %48, align 8, !tbaa !256
  %50 = mul nsw i64 %indvars.iv44, %41
  %wide.trip.count = zext nneg i32 %45 to i64
  %51 = getelementptr float, ptr %27, i64 %50
  %52 = trunc nuw nsw i64 %indvars.iv44 to i32
  br label %53

53:                                               ; preds = %.lr.ph33, %53
  %indvars.iv = phi i64 [ 0, %.lr.ph33 ], [ %indvars.iv.next, %53 ]
  %54 = getelementptr inbounds nuw %struct.gmx_sparsematrix_entry, ptr %49, i64 %indvars.iv
  %55 = load i32, ptr %54, align 4, !tbaa !258
  %56 = getelementptr inbounds nuw i8, ptr %54, i64 4
  %57 = load float, ptr %56, align 4, !tbaa !260
  %58 = sext i32 %55 to i64
  %59 = getelementptr float, ptr %51, i64 %58
  store float %57, ptr %59, align 4, !tbaa !78
  %60 = mul nsw i32 %55, %29
  %61 = add nsw i32 %60, %52
  %62 = sext i32 %61 to i64
  %63 = getelementptr inbounds float, ptr %27, i64 %62
  store float %57, ptr %63, align 4, !tbaa !78
  %indvars.iv.next = add nuw nsw i64 %indvars.iv, 1
  %exitcond.not = icmp eq i64 %indvars.iv.next, %wide.trip.count
  br i1 %exitcond.not, label %._crit_edge, label %53, !llvm.loop !261

._crit_edge:                                      ; preds = %53, %.preheader28
  %indvars.iv.next45 = add nuw nsw i64 %indvars.iv44, 1
  %exitcond48.not = icmp eq i64 %indvars.iv.next45, %wide.trip.count47
  br i1 %exitcond48.not, label %._crit_edge35, label %.preheader28, !llvm.loop !262

._crit_edge35:                                    ; preds = %._crit_edge, %.preheader29
  call void @_Z24gmx_sparsematrix_destroyP16gmx_sparsematrix(ptr noundef nonnull %34)
  br label %64

64:                                               ; preds = %._crit_edge35, %_ZNSt10filesystem7__cxx114pathD2Ev.exit
  %65 = load i32, ptr %3, align 4, !tbaa !74
  %66 = load i32, ptr %4, align 4, !tbaa !74
  %67 = call i32 (ptr, ...) @printf(ptr noundef nonnull dereferenceable(1) @.str.99, i32 noundef %65, i32 noundef %66)
  %68 = load i32, ptr %3, align 4, !tbaa !74
  %69 = icmp sgt i32 %68, 0
  br i1 %69, label %.preheader, label %._crit_edge41

.preheader:                                       ; preds = %64, %._crit_edge39
  %.240 = phi i32 [ %84, %._crit_edge39 ], [ 0, %64 ]
  %70 = load i32, ptr %4, align 4, !tbaa !74
  %71 = icmp sgt i32 %70, 0
  br i1 %71, label %.lr.ph38, label %._crit_edge39

.lr.ph38:                                         ; preds = %.preheader, %.lr.ph38
  %72 = phi i32 [ %82, %.lr.ph38 ], [ %70, %.preheader ]
  %.12637 = phi i32 [ %81, %.lr.ph38 ], [ 0, %.preheader ]
  %73 = load ptr, ptr %5, align 8, !tbaa !182
  %74 = mul nsw i32 %72, %.240
  %75 = add nsw i32 %74, %.12637
  %76 = sext i32 %75 to i64
  %77 = getelementptr inbounds float, ptr %73, i64 %76
  %78 = load float, ptr %77, align 4, !tbaa !78
  %79 = fpext float %78 to double
  %80 = call i32 (ptr, ...) @printf(ptr noundef nonnull dereferenceable(1) @.str.100, double noundef %79)
  %81 = add nuw nsw i32 %.12637, 1
  %82 = load i32, ptr %4, align 4, !tbaa !74
  %83 = icmp slt i32 %81, %82
  br i1 %83, label %.lr.ph38, label %._crit_edge39, !llvm.loop !263

._crit_edge39:                                    ; preds = %.lr.ph38, %.preheader
  %putchar = call i32 @putchar(i32 10)
  %84 = add nuw nsw i32 %.240, 1
  %85 = load i32, ptr %3, align 4, !tbaa !74
  %86 = icmp slt i32 %84, %85
  br i1 %86, label %.preheader, label %._crit_edge41, !llvm.loop !264

._crit_edge41:                                    ; preds = %._crit_edge39, %64
  %87 = load ptr, ptr %5, align 8, !tbaa !182
  call void @_Z9save_freePKcS0_iPv(ptr noundef nonnull @.str.98, ptr noundef nonnull @.str.53, i32 noundef 622, ptr noundef %87)
  call void @llvm.lifetime.end.p0(i64 8, ptr nonnull %6) #20
  call void @llvm.lifetime.end.p0(i64 8, ptr nonnull %5) #20
  call void @llvm.lifetime.end.p0(i64 4, ptr nonnull %4) #20
  call void @llvm.lifetime.end.p0(i64 4, ptr nonnull %3) #20
  ret void
}